; Function Attrs: nounwind uwtable
define internal void @timer_cb(ptr noundef initializes((-24, -16)) %0) #1 {
  %2 = getelementptr inbounds i8, ptr %0, i64 -16
  %3 = load ptr, ptr %2, align 8, !tbaa !19
  %4 = tail call i64 @uv_now(ptr noundef %3) #7
  %5 = getelementptr inbounds i8, ptr %0, i64 -24
  store i64 %4, ptr %5, align 8, !tbaa !34
  %6 = load ptr, ptr %2, align 8, !tbaa !19
  %7 = getelementptr inbounds nuw i8, ptr %0, i64 152
  %8 = getelementptr inbounds nuw i8, ptr %0, i64 760
  %9 = tail call i32 @uv_fs_stat(ptr noundef %6, ptr noundef nonnull %7, ptr noundef nonnull %8, ptr noundef nonnull @poll_cb) #7
  %.not = icmp eq i32 %9, 0
  br i1 %.not, label %11, label %10

10:                                               ; preds = %1
  tail call void @abort() #9
  unreachable

11:                                               ; preds = %1
  ret void
}